; Function Attrs: mustprogress nounwind uwtable
define void @_ZN6icu_7714MessagePatternC2E29UMessagePatternApostropheModeR10UErrorCode(ptr noundef nonnull writeonly align 8 captures(none) dereferenceable(127) initializes((0, 12), (16, 26), (80, 100), (104, 127)) %0, i32 noundef %1, ptr noundef nonnull align 4 captures(none) dereferenceable(4) %2) unnamed_addr #0 align 2 personality ptr @__gxx_personality_v0 {
  store ptr getelementptr inbounds nuw inrange(-16, 24) (i8, ptr @_ZTVN6icu_7714MessagePatternE, i64 16), ptr %0, align 8, !tbaa !3
  %4 = getelementptr inbounds nuw i8, ptr %0, i64 8
  store i32 %1, ptr %4, align 8, !tbaa !6
  %5 = getelementptr inbounds nuw i8, ptr %0, i64 16
  store ptr getelementptr inbounds nuw inrange(-16, 88) (i8, ptr @_ZTVN6icu_7713UnicodeStringE, i64 16), ptr %5, align 8, !tbaa !3
  %6 = getelementptr inbounds nuw i8, ptr %0, i64 24
  store i16 2, ptr %6, align 8, !tbaa !19
  %7 = getelementptr inbounds nuw i8, ptr %0, i64 80
  %8 = getelementptr inbounds nuw i8, ptr %0, i64 88
  %9 = getelementptr inbounds nuw i8, ptr %0, i64 104
  tail call void @llvm.memset.p0.i64(ptr noundef nonnull align 8 dereferenceable(20) %7, i8 0, i64 20, i1 false)
  tail call void @llvm.memset.p0.i64(ptr noundef nonnull align 8 dereferenceable(23) %9, i8 0, i64 23, i1 false)
  %10 = load i32, ptr %2, align 4, !tbaa !20
  %11 = icmp slt i32 %10, 1
  br i1 %11, label %12, label %_ZN6icu_7714MessagePattern4initER10UErrorCode.exit

12:                                               ; preds = %3
  %13 = tail call noundef ptr @_ZN6icu_777UMemorynwEm(i64 noundef 528) #18
  %14 = icmp eq ptr %13, null
  br i1 %14, label %15, label %16

15:                                               ; preds = %12
  store ptr null, ptr %7, align 8, !tbaa !22
  store i32 7, ptr %2, align 4, !tbaa !20
  br label %_ZN6icu_7714MessagePattern4initER10UErrorCode.exit

16:                                               ; preds = %12
  %17 = getelementptr inbounds nuw i8, ptr %13, i64 8
  tail call void @llvm.memset.p0.i64(ptr noundef nonnull align 8 dereferenceable(520) %17, i8 0, i64 520, i1 false)
  %.ptr2.i.i.i.i = getelementptr inbounds nuw i8, ptr %13, i64 16
  store ptr %.ptr2.i.i.i.i, ptr %13, align 8, !tbaa !23
  store i32 32, ptr %17, align 8, !tbaa !25
  store ptr %13, ptr %7, align 8, !tbaa !22
  store ptr %.ptr2.i.i.i.i, ptr %8, align 8, !tbaa !26
  br label %_ZN6icu_7714MessagePattern4initER10UErrorCode.exit

_ZN6icu_7714MessagePattern4initER10UErrorCode.exit: ; preds = %16, %15, %3
  ret void
}